target datalayout = "e-m:e-p270:32:32-p271:32:32-p272:64:64-i64:64-i128:128-f80:128-n8:16:32:64-S128"
target triple = "x86_64-pc-linux-gnu"

%struct.H5O_loc_t = type { ptr, i64, i8 }
%struct.H5O_copy_t = type { i8, i8, i8, i8, i8, i8, i8, ptr, i32, i32, ptr, ptr, i8, ptr, ptr, ptr, ptr, ptr, i64 }
%struct.H5O_copy_search_comm_dt_key_t = type { ptr, i64 }

@H5_H5O_copy_search_comm_dt_key_t_reg_free_list = global { i8, [3 x i8], i32, i32, [4 x i8], ptr, i64, ptr } { i8 0, [3 x i8] zeroinitializer, i32 0, i32 0, [4 x i8] zeroinitializer, ptr @.str.1, i64 16, ptr null }, align 8
@H5_haddr_t_reg_free_list = global { i8, [3 x i8], i32, i32, [4 x i8], ptr, i64, ptr } { i8 0, [3 x i8] zeroinitializer, i32 0, i32 0, [4 x i8] zeroinitializer, ptr @.str.2, i64 8, ptr null }, align 8
@H5O_init_g = external global i8, align 1
@H5_libterm_g = external global i8, align 1
@.str.3 = private unnamed_addr constant [101 x i8] c"generated/home/dtcxzyw/WorkSpace/Projects/compilers/llvm-opt-benchmark/bench/hdf5/hdf5/src/H5Ocopy.c\00", align 1
@H5E_OHDR_g = external global i64, align 8
@H5E_CANTGET_g = external global i64, align 8
@H5E_RESOURCE_g = external global i64, align 8
@H5E_NOSPACE_g = external global i64, align 8
@.str.17 = private unnamed_addr constant [25 x i8] c"memory allocation failed\00", align 1
@H5E_CANTINSERT_g = external global i64, align 8
@.str.18 = private unnamed_addr constant [35 x i8] c"can't insert object into skip list\00", align 1
@.str.35 = private unnamed_addr constant [25 x i8] c"can't read DTYPE message\00", align 1
@__func__.H5O__copy_insert_comm_dt = private unnamed_addr constant [25 x i8] c"H5O__copy_insert_comm_dt\00", align 1

; Function Attrs: nounwind uwtable
define internal i32 @H5O__copy_insert_comm_dt(ptr noundef %0, ptr noundef %1, ptr noundef %2, ptr noundef %3) #0 {
  %5 = alloca ptr, align 8
  %6 = alloca ptr, align 8
  %7 = alloca ptr, align 8
  %8 = alloca ptr, align 8
  %9 = alloca ptr, align 8
  %10 = alloca ptr, align 8
  %11 = alloca i32, align 4
  %12 = alloca i8, align 1
  store ptr %0, ptr %5, align 8, !tbaa !26
  store ptr %1, ptr %6, align 8, !tbaa !51
  store ptr %2, ptr %7, align 8, !tbaa !27
  store ptr %3, ptr %8, align 8, !tbaa !28
  call void @llvm.lifetime.start.p0(i64 8, ptr %9) #8
  store ptr null, ptr %9, align 8, !tbaa !136
  call void @llvm.lifetime.start.p0(i64 8, ptr %10) #8
  store ptr null, ptr %10, align 8, !tbaa !154
  call void @llvm.lifetime.start.p0(i64 4, ptr %11) #8
  store i32 0, ptr %11, align 4, !tbaa !14
  call void @llvm.lifetime.start.p0(i64 1, ptr %12) #8
  store i8 0, ptr %12, align 1, !tbaa !12
  %13 = load i8, ptr @H5O_init_g, align 1, !tbaa !12, !range !16, !noundef !17
  %14 = trunc i8 %13 to i1
  br i1 %14, label %19, label %15

15:                                               ; preds = %4
  %16 = load i8, ptr @H5_libterm_g, align 1, !tbaa !12, !range !16, !noundef !17
  %17 = trunc i8 %16 to i1
  %18 = xor i1 %17, true
  br label %19

19:                                               ; preds = %15, %4
  %20 = phi i1 [ true, %4 ], [ %18, %15 ]
  %21 = xor i1 %20, true
  %22 = xor i1 %21, true
  %23 = zext i1 %22 to i32
  %24 = sext i32 %23 to i64
  %25 = call i64 @llvm.expect.i64(i64 %24, i64 1)
  %26 = icmp ne i64 %25, 0
  br i1 %26, label %27, label %164

27:                                               ; preds = %19
  %28 = call noalias ptr @H5FL_reg_malloc(ptr noundef @H5_H5O_copy_search_comm_dt_key_t_reg_free_list)
  store ptr %28, ptr %9, align 8, !tbaa !136
  %29 = icmp eq ptr null, %28
  br i1 %29, label %30, label %49

30:                                               ; preds = %27
  br label %31

31:                                               ; preds = %30
  br label %32

32:                                               ; preds = %31
  br label %33

33:                                               ; preds = %32
  %34 = load i64, ptr @H5E_RESOURCE_g, align 8, !tbaa !10
  %35 = load i64, ptr @H5E_NOSPACE_g, align 8, !tbaa !10
  %36 = call i32 (ptr, ptr, i32, i64, i64, ptr, ...) @H5E_printf_stack(ptr noundef @.str.3, ptr noundef @__func__.H5O__copy_insert_comm_dt, i32 noundef 1602, i64 noundef %34, i64 noundef %35, ptr noundef @.str.17)
  br label %37

37:                                               ; preds = %33
  br label %38

38:                                               ; preds = %37
  store i8 1, ptr %12, align 1, !tbaa !12
  %39 = load i8, ptr %12, align 1, !tbaa !12, !range !16, !noundef !17
  %40 = trunc i8 %39 to i1
  %41 = zext i1 %40 to i8
  store i8 %41, ptr %12, align 1, !tbaa !12
  br label %42

42:                                               ; preds = %38
  br label %43

43:                                               ; preds = %42
  br label %44

44:                                               ; preds = %43
  store i32 -1, ptr %11, align 4, !tbaa !14
  br label %135

45:                                               ; No predecessors!
  br label %46

46:                                               ; preds = %45
  br label %47

47:                                               ; preds = %46
  br label %48

48:                                               ; preds = %47
  br label %49

49:                                               ; preds = %48, %27
  %50 = load ptr, ptr %5, align 8, !tbaa !26
  %51 = load ptr, ptr %6, align 8, !tbaa !51
  %52 = call ptr @H5O_msg_read_oh(ptr noundef %50, ptr noundef %51, i32 noundef 3, ptr noundef null)
  %53 = load ptr, ptr %9, align 8, !tbaa !136
  %54 = getelementptr inbounds nuw %struct.H5O_copy_search_comm_dt_key_t, ptr %53, i32 0, i32 0
  store ptr %52, ptr %54, align 8, !tbaa !138
  %55 = icmp eq ptr null, %52
  br i1 %55, label %56, label %75

56:                                               ; preds = %49
  br label %57

57:                                               ; preds = %56
  br label %58

58:                                               ; preds = %57
  br label %59

59:                                               ; preds = %58
  %60 = load i64, ptr @H5E_OHDR_g, align 8, !tbaa !10
  %61 = load i64, ptr @H5E_CANTGET_g, align 8, !tbaa !10
  %62 = call i32 (ptr, ptr, i32, i64, i64, ptr, ...) @H5E_printf_stack(ptr noundef @.str.3, ptr noundef @__func__.H5O__copy_insert_comm_dt, i32 noundef 1607, i64 noundef %60, i64 noundef %61, ptr noundef @.str.35)
  br label %63

63:                                               ; preds = %59
  br label %64

64:                                               ; preds = %63
  store i8 1, ptr %12, align 1, !tbaa !12
  %65 = load i8, ptr %12, align 1, !tbaa !12, !range !16, !noundef !17
  %66 = trunc i8 %65 to i1
  %67 = zext i1 %66 to i8
  store i8 %67, ptr %12, align 1, !tbaa !12
  br label %68

68:                                               ; preds = %64
  br label %69

69:                                               ; preds = %68
  br label %70

70:                                               ; preds = %69
  store i32 -1, ptr %11, align 4, !tbaa !14
  br label %135

71:                                               ; No predecessors!
  br label %72

72:                                               ; preds = %71
  br label %73

73:                                               ; preds = %72
  br label %74

74:                                               ; preds = %73
  br label %75

75:                                               ; preds = %74, %49
  %76 = load ptr, ptr %7, align 8, !tbaa !27
  %77 = getelementptr inbounds nuw %struct.H5O_loc_t, ptr %76, i32 0, i32 0
  %78 = load ptr, ptr %77, align 8, !tbaa !23
  %79 = load ptr, ptr %9, align 8, !tbaa !136
  %80 = getelementptr inbounds nuw %struct.H5O_copy_search_comm_dt_key_t, ptr %79, i32 0, i32 1
  %81 = call i32 @H5F_get_fileno(ptr noundef %78, ptr noundef %80)
  %82 = call noalias ptr @H5FL_reg_malloc(ptr noundef @H5_haddr_t_reg_free_list)
  store ptr %82, ptr %10, align 8, !tbaa !154
  %83 = icmp eq ptr null, %82
  br i1 %83, label %84, label %103

84:                                               ; preds = %75
  br label %85

85:                                               ; preds = %84
  br label %86

86:                                               ; preds = %85
  br label %87

87:                                               ; preds = %86
  %88 = load i64, ptr @H5E_RESOURCE_g, align 8, !tbaa !10
  %89 = load i64, ptr @H5E_NOSPACE_g, align 8, !tbaa !10
  %90 = call i32 (ptr, ptr, i32, i64, i64, ptr, ...) @H5E_printf_stack(ptr noundef @.str.3, ptr noundef @__func__.H5O__copy_insert_comm_dt, i32 noundef 1614, i64 noundef %88, i64 noundef %89, ptr noundef @.str.17)
  br label %91

91:                                               ; preds = %87
  br label %92

92:                                               ; preds = %91
  store i8 1, ptr %12, align 1, !tbaa !12
  %93 = load i8, ptr %12, align 1, !tbaa !12, !range !16, !noundef !17
  %94 = trunc i8 %93 to i1
  %95 = zext i1 %94 to i8
  store i8 %95, ptr %12, align 1, !tbaa !12
  br label %96

96:                                               ; preds = %92
  br label %97

97:                                               ; preds = %96
  br label %98

98:                                               ; preds = %97
  store i32 -1, ptr %11, align 4, !tbaa !14
  br label %135

99:                                               ; No predecessors!
  br label %100

100:                                              ; preds = %99
  br label %101

101:                                              ; preds = %100
  br label %102

102:                                              ; preds = %101
  br label %103

103:                                              ; preds = %102, %75
  %104 = load ptr, ptr %7, align 8, !tbaa !27
  %105 = getelementptr inbounds nuw %struct.H5O_loc_t, ptr %104, i32 0, i32 1
  %106 = load i64, ptr %105, align 8, !tbaa !33
  %107 = load ptr, ptr %10, align 8, !tbaa !154
  store i64 %106, ptr %107, align 8, !tbaa !10
  %108 = load ptr, ptr %8, align 8, !tbaa !28
  %109 = getelementptr inbounds nuw %struct.H5O_copy_t, ptr %108, i32 0, i32 11
  %110 = load ptr, ptr %109, align 8, !tbaa !141
  %111 = load ptr, ptr %10, align 8, !tbaa !154
  %112 = load ptr, ptr %9, align 8, !tbaa !136
  %113 = call i32 @H5SL_insert(ptr noundef %110, ptr noundef %111, ptr noundef %112)
  %114 = icmp slt i32 %113, 0
  br i1 %114, label %115, label %134

115:                                              ; preds = %103
  br label %116

116:                                              ; preds = %115
  br label %117

117:                                              ; preds = %116
  br label %118

118:                                              ; preds = %117
  %119 = load i64, ptr @H5E_OHDR_g, align 8, !tbaa !10
  %120 = load i64, ptr @H5E_CANTINSERT_g, align 8, !tbaa !10
  %121 = call i32 (ptr, ptr, i32, i64, i64, ptr, ...) @H5E_printf_stack(ptr noundef @.str.3, ptr noundef @__func__.H5O__copy_insert_comm_dt, i32 noundef 1619, i64 noundef %119, i64 noundef %120, ptr noundef @.str.18)
  br label %122

122:                                              ; preds = %118
  br label %123

123:                                              ; preds = %122
  store i8 1, ptr %12, align 1, !tbaa !12
  %124 = load i8, ptr %12, align 1, !tbaa !12, !range !16, !noundef !17
  %125 = trunc i8 %124 to i1
  %126 = zext i1 %125 to i8
  store i8 %126, ptr %12, align 1, !tbaa !12
  br label %127

127:                                              ; preds = %123
  br label %128

128:                                              ; preds = %127
  br label %129

129:                                              ; preds = %128
  store i32 -1, ptr %11, align 4, !tbaa !14
  br label %135

130:                                              ; No predecessors!
  br label %131

131:                                              ; preds = %130
  br label %132

132:                                              ; preds = %131
  br label %133

133:                                              ; preds = %132
  br label %134

134:                                              ; preds = %133, %103
  br label %135

135:                                              ; preds = %134, %129, %98, %70, %44
  %136 = load i32, ptr %11, align 4, !tbaa !14
  %137 = icmp slt i32 %136, 0
  br i1 %137, label %138, label %163

138:                                              ; preds = %135
  %139 = load ptr, ptr %9, align 8, !tbaa !136
  %140 = icmp ne ptr %139, null
  br i1 %140, label %141, label %156

141:                                              ; preds = %138
  %142 = load ptr, ptr %9, align 8, !tbaa !136
  %143 = getelementptr inbounds nuw %struct.H5O_copy_search_comm_dt_key_t, ptr %142, i32 0, i32 0
  %144 = load ptr, ptr %143, align 8, !tbaa !138
  %145 = icmp ne ptr %144, null
  br i1 %145, label %146, label %153

146:                                              ; preds = %141
  %147 = load ptr, ptr %9, align 8, !tbaa !136
  %148 = getelementptr inbounds nuw %struct.H5O_copy_search_comm_dt_key_t, ptr %147, i32 0, i32 0
  %149 = load ptr, ptr %148, align 8, !tbaa !138
  %150 = call ptr @H5O_msg_free(i32 noundef 3, ptr noundef %149)
  %151 = load ptr, ptr %9, align 8, !tbaa !136
  %152 = getelementptr inbounds nuw %struct.H5O_copy_search_comm_dt_key_t, ptr %151, i32 0, i32 0
  store ptr %150, ptr %152, align 8, !tbaa !138
  br label %153

153:                                              ; preds = %146, %141
  %154 = load ptr, ptr %9, align 8, !tbaa !136
  %155 = call ptr @H5FL_reg_free(ptr noundef @H5_H5O_copy_search_comm_dt_key_t_reg_free_list, ptr noundef %154)
  store ptr %155, ptr %9, align 8, !tbaa !136
  br label %156

156:                                              ; preds = %153, %138
  %157 = load ptr, ptr %10, align 8, !tbaa !154
  %158 = icmp ne ptr %157, null
  br i1 %158, label %159, label %162

159:                                              ; preds = %156
  %160 = load ptr, ptr %10, align 8, !tbaa !154
  %161 = call ptr @H5FL_reg_free(ptr noundef @H5_haddr_t_reg_free_list, ptr noundef %160)
  store ptr %161, ptr %10, align 8, !tbaa !154
  br label %162

162:                                              ; preds = %159, %156
  br label %163

163:                                              ; preds = %162, %135
  br label %164

164:                                              ; preds = %163, %19
  %165 = load i32, ptr %11, align 4, !tbaa !14
  call void @llvm.lifetime.end.p0(i64 1, ptr %12) #8
  call void @llvm.lifetime.end.p0(i64 4, ptr %11) #8
  call void @llvm.lifetime.end.p0(i64 8, ptr %10) #8
  call void @llvm.lifetime.end.p0(i64 8, ptr %9) #8
  ret i32 %165
}