; Function Attrs: nounwind uwtable
define internal fastcc range(i32 -1, 1) i32 @H5O__copy_insert_comm_dt(ptr noundef %0, ptr noundef nonnull %1, ptr noundef readonly captures(none) %2, ptr noundef readonly captures(none) %3) unnamed_addr #0 {
  %5 = load i8, ptr @H5O_init_g, align 1, !tbaa !3, !range !7, !noundef !8
  %6 = trunc nuw i8 %5 to i1
  %7 = load i8, ptr @H5_libterm_g, align 1, !range !7
  %8 = trunc nuw i8 %7 to i1
  %9 = xor i1 %8, true
  %10 = select i1 %6, i1 true, i1 %9
  br i1 %10, label %11, label %53, !prof !9

11:                                               ; preds = %4
  %12 = tail call noalias ptr @H5FL_reg_malloc(ptr noundef nonnull @H5_H5O_copy_search_comm_dt_key_t_reg_free_list) #7
  %13 = icmp eq ptr %12, null
  br i1 %13, label %.thread37, label %14

14:                                               ; preds = %11
  %15 = tail call ptr @H5O_msg_read_oh(ptr noundef %0, ptr noundef nonnull %1, i32 noundef 3, ptr noundef null) #7
  store ptr %15, ptr %12, align 8, !tbaa !62
  %16 = icmp eq ptr %15, null
  br i1 %16, label %17, label %21

17:                                               ; preds = %14
  %18 = load i64, ptr @H5E_OHDR_g, align 8, !tbaa !10
  %19 = load i64, ptr @H5E_CANTGET_g, align 8, !tbaa !10
  %20 = tail call i32 (ptr, ptr, i32, i64, i64, ptr, ...) @H5E_printf_stack(ptr noundef nonnull @.str.3, ptr noundef nonnull @__func__.H5O__copy_insert_comm_dt, i32 noundef 1607, i64 noundef %18, i64 noundef %19, ptr noundef nonnull @.str.35) #7
  br label %45

21:                                               ; preds = %14
  %22 = load ptr, ptr %2, align 8, !tbaa !18
  %23 = getelementptr inbounds nuw i8, ptr %12, i64 8
  %24 = tail call i32 @H5F_get_fileno(ptr noundef %22, ptr noundef nonnull %23) #7
  %25 = tail call noalias ptr @H5FL_reg_malloc(ptr noundef nonnull @H5_haddr_t_reg_free_list) #7
  %26 = icmp eq ptr %25, null
  br i1 %26, label %27, label %31

27:                                               ; preds = %21
  %28 = load i64, ptr @H5E_RESOURCE_g, align 8, !tbaa !10
  %29 = load i64, ptr @H5E_NOSPACE_g, align 8, !tbaa !10
  %30 = tail call i32 (ptr, ptr, i32, i64, i64, ptr, ...) @H5E_printf_stack(ptr noundef nonnull @.str.3, ptr noundef nonnull @__func__.H5O__copy_insert_comm_dt, i32 noundef 1614, i64 noundef %28, i64 noundef %29, ptr noundef nonnull @.str.17) #7
  br label %45

31:                                               ; preds = %21
  %32 = getelementptr inbounds nuw i8, ptr %2, i64 8
  %33 = load i64, ptr %32, align 8, !tbaa !46
  store i64 %33, ptr %25, align 8, !tbaa !10
  %34 = getelementptr inbounds nuw i8, ptr %3, i64 32
  %35 = load ptr, ptr %34, align 8, !tbaa !45
  %36 = tail call i32 @H5SL_insert(ptr noundef %35, ptr noundef nonnull %25, ptr noundef nonnull %12) #7
  %37 = icmp slt i32 %36, 0
  br i1 %37, label %38, label %53

38:                                               ; preds = %31
  %39 = load i64, ptr @H5E_OHDR_g, align 8, !tbaa !10
  %40 = load i64, ptr @H5E_CANTINSERT_g, align 8, !tbaa !10
  %41 = tail call i32 (ptr, ptr, i32, i64, i64, ptr, ...) @H5E_printf_stack(ptr noundef nonnull @.str.3, ptr noundef nonnull @__func__.H5O__copy_insert_comm_dt, i32 noundef 1619, i64 noundef %39, i64 noundef %40, ptr noundef nonnull @.str.18) #7
  br label %45

.thread37:                                        ; preds = %11
  %42 = load i64, ptr @H5E_RESOURCE_g, align 8, !tbaa !10
  %43 = load i64, ptr @H5E_NOSPACE_g, align 8, !tbaa !10
  %44 = tail call i32 (ptr, ptr, i32, i64, i64, ptr, ...) @H5E_printf_stack(ptr noundef nonnull @.str.3, ptr noundef nonnull @__func__.H5O__copy_insert_comm_dt, i32 noundef 1602, i64 noundef %42, i64 noundef %43, ptr noundef nonnull @.str.17) #7
  br label %53

45:                                               ; preds = %17, %27, %38
  %.022.ph.ph = phi ptr [ null, %17 ], [ null, %27 ], [ %25, %38 ]
  %46 = load ptr, ptr %12, align 8, !tbaa !62
  %.not28 = icmp eq ptr %46, null
  br i1 %.not28, label %49, label %47

47:                                               ; preds = %45
  %48 = tail call ptr @H5O_msg_free(i32 noundef 3, ptr noundef nonnull %46) #7
  store ptr %48, ptr %12, align 8, !tbaa !62
  br label %49

49:                                               ; preds = %45, %47
  %50 = tail call ptr @H5FL_reg_free(ptr noundef nonnull @H5_H5O_copy_search_comm_dt_key_t_reg_free_list, ptr noundef nonnull %12) #7
  %.not29 = icmp eq ptr %.022.ph.ph, null
  br i1 %.not29, label %53, label %51

51:                                               ; preds = %49
  %52 = tail call ptr @H5FL_reg_free(ptr noundef nonnull @H5_haddr_t_reg_free_list, ptr noundef nonnull %.022.ph.ph) #7
  br label %53

53:                                               ; preds = %.thread37, %31, %51, %49, %4
  %.0 = phi i32 [ -1, %51 ], [ -1, %49 ], [ 0, %4 ], [ 0, %31 ], [ -1, %.thread37 ]
  ret i32 %.0
}